; Function Attrs: nounwind uwtable
define internal void @cast_untyped_list_to_other(ptr noundef %0, ptr noundef %1, ptr noundef %2) #0 {
  %4 = getelementptr inbounds i8, ptr %1, i64 32
  %5 = load ptr, ptr %4, align 8
  tail call fastcc void @expr_recursively_rewrite_untyped_list(ptr noundef %1, ptr noundef %5)
  br label %6

6:                                                ; preds = %19, %3
  %.0.i = phi ptr [ %2, %3 ], [ %.1.i, %19 ]
  %7 = getelementptr inbounds i8, ptr %.0.i, i64 8
  %8 = load ptr, ptr %7, align 8
  %9 = load i32, ptr %8, align 8
  switch i32 %9, label %type_flatten.exit [
    i32 32, label %10
    i32 40, label %16
    i32 31, label %18
  ]

10:                                               ; preds = %6
  %11 = getelementptr inbounds i8, ptr %8, i64 56
  %12 = load ptr, ptr %11, align 8
  %13 = getelementptr inbounds i8, ptr %12, i64 96
  %14 = load ptr, ptr %13, align 8
  %15 = getelementptr inbounds i8, ptr %14, i64 8
  br label %19

16:                                               ; preds = %6
  %17 = getelementptr inbounds i8, ptr %8, i64 56
  br label %19

18:                                               ; preds = %6
  tail call void (ptr, ...) @error_exit(ptr noundef nonnull @.str.2, ptr noundef nonnull @.str.3, ptr noundef nonnull @__func__.type_flatten, ptr noundef nonnull @.str.10, i32 noundef 2984) #11
  unreachable

19:                                               ; preds = %16, %10
  %.1.in.i = phi ptr [ %17, %16 ], [ %15, %10 ]
  %.1.i = load ptr, ptr %.1.in.i, align 8
  br label %6

type_flatten.exit:                                ; preds = %6
  %20 = tail call zeroext i1 @sema_expr_analyse_initializer_list(ptr noundef %0, ptr noundef nonnull %8, ptr noundef %1) #10
  %21 = load ptr, ptr %1, align 8
  %22 = tail call ptr @type_infer_len_from_actual_type(ptr noundef %2, ptr noundef %21)
  store ptr %22, ptr %1, align 8
  ret void
}